target datalayout = "e-m:e-p270:32:32-p271:32:32-p272:64:64-i64:64-i128:128-f80:128-n8:16:32:64-S128"
target triple = "x86_64-pc-linux-gnu"

%struct.jv = type { i8, i8, i16, i32, %union.anon }
%union.anon = type { ptr }

@stderr = external global ptr, align 8
@.str.81 = private unnamed_addr constant [3 x i8] c"%s\00", align 1

; Function Attrs: nounwind uwtable
define internal void @priv_fwrite(ptr noundef %0, i64 noundef %1, ptr noundef %2, i32 noundef %3) #0 {
  %5 = alloca ptr, align 8
  %6 = alloca i64, align 8
  %7 = alloca ptr, align 8
  %8 = alloca i32, align 4
  store ptr %0, ptr %5, align 8, !tbaa !15
  store i64 %1, ptr %6, align 8, !tbaa !31
  store ptr %2, ptr %7, align 8, !tbaa !21
  store i32 %3, ptr %8, align 4, !tbaa !4
  %9 = load ptr, ptr %5, align 8, !tbaa !15
  %10 = load i64, ptr %6, align 8, !tbaa !31
  %11 = load ptr, ptr %7, align 8, !tbaa !21
  %12 = call i64 @fwrite(ptr noundef %9, i64 noundef 1, i64 noundef %10, ptr noundef %11)
  ret void
}

; Function Attrs: nounwind uwtable
define internal void @stderr_cb(ptr noundef %0, i64 %1, ptr %2) #0 {
  %4 = alloca %struct.jv, align 8
  %5 = alloca ptr, align 8
  %6 = alloca i32, align 4
  %7 = alloca %struct.jv, align 8
  %8 = alloca %struct.jv, align 8
  %9 = getelementptr inbounds nuw { i64, ptr }, ptr %4, i32 0, i32 0
  store i64 %1, ptr %9, align 8
  %10 = getelementptr inbounds nuw { i64, ptr }, ptr %4, i32 0, i32 1
  store ptr %2, ptr %10, align 8
  store ptr %0, ptr %5, align 8, !tbaa !29
  %11 = getelementptr inbounds nuw { i64, ptr }, ptr %4, i32 0, i32 0
  %12 = load i64, ptr %11, align 8
  %13 = getelementptr inbounds nuw { i64, ptr }, ptr %4, i32 0, i32 1
  %14 = load ptr, ptr %13, align 8
  %15 = call i32 @jv_get_kind(i64 %12, ptr %14)
  %16 = icmp eq i32 %15, 5
  br i1 %16, label %17, label %43

17:                                               ; preds = %3
  call void @llvm.lifetime.start.p0(i64 4, ptr %6) #10
  %18 = load ptr, ptr %5, align 8, !tbaa !29
  %19 = load i32, ptr %18, align 4, !tbaa !4
  store i32 %19, ptr %6, align 4, !tbaa !4
  %20 = getelementptr inbounds nuw { i64, ptr }, ptr %4, i32 0, i32 0
  %21 = load i64, ptr %20, align 8
  %22 = getelementptr inbounds nuw { i64, ptr }, ptr %4, i32 0, i32 1
  %23 = load ptr, ptr %22, align 8
  %24 = call ptr @jv_string_value(i64 %21, ptr %23)
  %25 = getelementptr inbounds nuw { i64, ptr }, ptr %4, i32 0, i32 0
  %26 = load i64, ptr %25, align 8
  %27 = getelementptr inbounds nuw { i64, ptr }, ptr %4, i32 0, i32 1
  %28 = load ptr, ptr %27, align 8
  %29 = call { i64, ptr } @jv_copy(i64 %26, ptr %28)
  %30 = getelementptr inbounds nuw { i64, ptr }, ptr %7, i32 0, i32 0
  %31 = extractvalue { i64, ptr } %29, 0
  store i64 %31, ptr %30, align 8
  %32 = getelementptr inbounds nuw { i64, ptr }, ptr %7, i32 0, i32 1
  %33 = extractvalue { i64, ptr } %29, 1
  store ptr %33, ptr %32, align 8
  %34 = getelementptr inbounds nuw { i64, ptr }, ptr %7, i32 0, i32 0
  %35 = load i64, ptr %34, align 8
  %36 = getelementptr inbounds nuw { i64, ptr }, ptr %7, i32 0, i32 1
  %37 = load ptr, ptr %36, align 8
  %38 = call i32 @jv_string_length_bytes(i64 %35, ptr %37)
  %39 = sext i32 %38 to i64
  %40 = load ptr, ptr @stderr, align 8, !tbaa !21
  %41 = load i32, ptr %6, align 4, !tbaa !4
  %42 = and i32 %41, 128
  call void @priv_fwrite(ptr noundef %24, i64 noundef %39, ptr noundef %40, i32 noundef %42)
  call void @llvm.lifetime.end.p0(i64 4, ptr %6) #10
  br label %60

43:                                               ; preds = %3
  call void @llvm.lifetime.start.p0(i64 16, ptr %8) #10
  %44 = getelementptr inbounds nuw { i64, ptr }, ptr %4, i32 0, i32 0
  %45 = load i64, ptr %44, align 8
  %46 = getelementptr inbounds nuw { i64, ptr }, ptr %4, i32 0, i32 1
  %47 = load ptr, ptr %46, align 8
  %48 = call { i64, ptr } @jv_dump_string(i64 %45, ptr %47, i32 noundef 0)
  %49 = getelementptr inbounds nuw { i64, ptr }, ptr %8, i32 0, i32 0
  %50 = extractvalue { i64, ptr } %48, 0
  store i64 %50, ptr %49, align 8
  %51 = getelementptr inbounds nuw { i64, ptr }, ptr %8, i32 0, i32 1
  %52 = extractvalue { i64, ptr } %48, 1
  store ptr %52, ptr %51, align 8
  call void @llvm.memcpy.p0.p0.i64(ptr align 8 %4, ptr align 8 %8, i64 16, i1 false), !tbaa.struct !17
  call void @llvm.lifetime.end.p0(i64 16, ptr %8) #10
  %53 = load ptr, ptr @stderr, align 8, !tbaa !21
  %54 = getelementptr inbounds nuw { i64, ptr }, ptr %4, i32 0, i32 0
  %55 = load i64, ptr %54, align 8
  %56 = getelementptr inbounds nuw { i64, ptr }, ptr %4, i32 0, i32 1
  %57 = load ptr, ptr %56, align 8
  %58 = call ptr @jv_string_value(i64 %55, ptr %57)
  %59 = call i32 (ptr, ptr, ...) @fprintf(ptr noundef %53, ptr noundef @.str.81, ptr noundef %58) #10
  br label %60

60:                                               ; preds = %43, %17
  %61 = getelementptr inbounds nuw { i64, ptr }, ptr %4, i32 0, i32 0
  %62 = load i64, ptr %61, align 8
  %63 = getelementptr inbounds nuw { i64, ptr }, ptr %4, i32 0, i32 1
  %64 = load ptr, ptr %63, align 8
  call void @jv_free(i64 %62, ptr %64)
  ret void
}