; Function Attrs: cold nounwind uwtable
define internal void @stderr_cb(ptr readonly captures(none) %0, i64 %1, ptr %2) #12 {
  %4 = tail call i32 @jv_get_kind(i64 %1, ptr %2) #19
  %5 = icmp eq i32 %4, 5
  br i1 %5, label %6, label %15

6:                                                ; preds = %3
  %7 = tail call ptr @jv_string_value(i64 %1, ptr %2) #19
  %8 = tail call { i64, ptr } @jv_copy(i64 %1, ptr %2) #19
  %9 = extractvalue { i64, ptr } %8, 0
  %10 = extractvalue { i64, ptr } %8, 1
  %11 = tail call i32 @jv_string_length_bytes(i64 %9, ptr %10) #19
  %12 = sext i32 %11 to i64
  %13 = load ptr, ptr @stderr, align 8, !tbaa !20
  %14 = tail call i64 @fwrite(ptr noundef %7, i64 noundef 1, i64 noundef range(i64 -2147483648, 2147483648) %12, ptr noundef %13) #20
  br label %21

15:                                               ; preds = %3
  %16 = tail call { i64, ptr } @jv_dump_string(i64 %1, ptr %2, i32 noundef 0) #19
  %17 = extractvalue { i64, ptr } %16, 0
  %18 = extractvalue { i64, ptr } %16, 1
  %19 = load ptr, ptr @stderr, align 8, !tbaa !20
  %20 = tail call ptr @jv_string_value(i64 %17, ptr %18) #19
  %fputs = tail call i32 @fputs(ptr %20, ptr %19) #20
  br label %21

21:                                               ; preds = %15, %6
  %.sroa.02.0 = phi i64 [ %1, %6 ], [ %17, %15 ]
  %.sroa.8.0 = phi ptr [ %2, %6 ], [ %18, %15 ]
  tail call void @jv_free(i64 %.sroa.02.0, ptr %.sroa.8.0) #19
  ret void
}